; Function Attrs: mustprogress uwtable
define hidden void @_ZN2cv5GNodeC2ERKNS_5GCallE(ptr noundef nonnull writeonly align 8 captures(none) dereferenceable(16) initializes((0, 16)) %0, ptr noundef nonnull readonly align 8 captures(none) dereferenceable(16) %1) unnamed_addr #5 align 2 personality ptr @__gxx_personality_v0 {
  %3 = alloca %"class.cv::GCall", align 8
  %4 = tail call noalias noundef nonnull dereferenceable(64) ptr @_Znwm(i64 noundef 64) #18
  %5 = load ptr, ptr %1, align 8, !tbaa !18
  store ptr %5, ptr %3, align 8, !tbaa !18
  %6 = getelementptr inbounds nuw i8, ptr %3, i64 8
  %7 = getelementptr inbounds nuw i8, ptr %1, i64 8
  %8 = load ptr, ptr %7, align 8, !tbaa !23
  store ptr %8, ptr %6, align 8, !tbaa !23
  %.not.i.i.i.i = icmp eq ptr %8, null
  %9 = getelementptr inbounds nuw i8, ptr %4, i64 24
  br i1 %.not.i.i.i.i, label %_ZN2cv5GCallC2ERKS0_.exit.thread, label %12

_ZN2cv5GCallC2ERKS0_.exit.thread:                 ; preds = %2
  store i32 1, ptr %4, align 8, !tbaa !3
  %10 = getelementptr inbounds nuw i8, ptr %4, i64 8
  store i64 1, ptr %10, align 8, !tbaa !14
  %11 = getelementptr inbounds nuw i8, ptr %4, i64 16
  store ptr %5, ptr %11, align 8, !tbaa !18
  store ptr null, ptr %9, align 8, !tbaa !23
  br label %29

12:                                               ; preds = %2
  %13 = getelementptr inbounds nuw i8, ptr %8, i64 8
  %14 = load i8, ptr @__libc_single_threaded, align 1, !tbaa !17
  %.not.i.i.i.i.i = icmp eq i8 %14, 0
  %15 = getelementptr inbounds nuw i8, ptr %4, i64 8
  %16 = getelementptr inbounds nuw i8, ptr %4, i64 16
  br i1 %.not.i.i.i.i.i, label %_ZN2cv5GCallC2ERKS0_.exit, label %_ZN2cv5GCallC2ERKS0_.exit.thread6

_ZN2cv5GCallC2ERKS0_.exit.thread6:                ; preds = %12
  %17 = load i32, ptr %13, align 4, !tbaa !24
  %18 = add nsw i32 %17, 1
  store i32 %18, ptr %13, align 4, !tbaa !24
  store i32 1, ptr %4, align 8, !tbaa !3
  store i64 1, ptr %15, align 8, !tbaa !14
  store ptr %5, ptr %16, align 8, !tbaa !18
  store ptr %8, ptr %9, align 8, !tbaa !23
  br label %20

_ZN2cv5GCallC2ERKS0_.exit:                        ; preds = %12
  %19 = atomicrmw volatile add ptr %13, i32 1 acq_rel, align 4
  %.pre = load ptr, ptr %3, align 8, !tbaa !18
  %.pre4 = load ptr, ptr %6, align 8, !tbaa !23
  store i32 1, ptr %4, align 8, !tbaa !3
  store i64 1, ptr %15, align 8, !tbaa !14
  store ptr %.pre, ptr %16, align 8, !tbaa !18
  store ptr %.pre4, ptr %9, align 8, !tbaa !23
  %.not.i.i.i.i.i.i.i = icmp eq ptr %.pre4, null
  br i1 %.not.i.i.i.i.i.i.i, label %29, label %20

20:                                               ; preds = %_ZN2cv5GCallC2ERKS0_.exit.thread6, %_ZN2cv5GCallC2ERKS0_.exit
  %21 = phi ptr [ %8, %_ZN2cv5GCallC2ERKS0_.exit.thread6 ], [ %.pre4, %_ZN2cv5GCallC2ERKS0_.exit ]
  %22 = getelementptr inbounds nuw i8, ptr %21, i64 8
  %23 = load i8, ptr @__libc_single_threaded, align 1, !tbaa !17
  %.not.i.i.i.i.i.i.i.i = icmp eq i8 %23, 0
  br i1 %.not.i.i.i.i.i.i.i.i, label %27, label %24

24:                                               ; preds = %20
  %25 = load i32, ptr %22, align 4, !tbaa !24
  %26 = add nsw i32 %25, 1
  store i32 %26, ptr %22, align 4, !tbaa !24
  br label %29

27:                                               ; preds = %20
  %28 = atomicrmw volatile add ptr %22, i32 1 acq_rel, align 4
  br label %29

29:                                               ; preds = %_ZN2cv5GCallC2ERKS0_.exit.thread, %27, %24, %_ZN2cv5GCallC2ERKS0_.exit
  %30 = getelementptr inbounds nuw i8, ptr %4, i64 32
  %31 = getelementptr inbounds nuw i8, ptr %4, i64 48
  store ptr %31, ptr %30, align 8, !tbaa !15
  %32 = getelementptr inbounds nuw i8, ptr %4, i64 40
  store i64 0, ptr %32, align 8, !tbaa !16
  store i8 0, ptr %31, align 1, !tbaa !17
  store ptr %4, ptr %0, align 8, !tbaa !26
  %33 = getelementptr inbounds nuw i8, ptr %0, i64 8
  store ptr null, ptr %33, align 8, !tbaa !23
  %34 = invoke noalias noundef nonnull dereferenceable(24) ptr @_Znwm(i64 noundef 24) #18
          to label %45 unwind label %35

35:                                               ; preds = %29
  %36 = landingpad { ptr, i32 }
          catch ptr null
  %37 = extractvalue { ptr, i32 } %36, 0
  %38 = tail call ptr @__cxa_begin_catch(ptr %37) #19
  tail call void @_ZN2cv5GNode4PrivD2Ev(ptr noundef nonnull align 8 dereferenceable(64) %4) #19
  tail call void @_ZdlPv(ptr noundef nonnull %4) #20
  invoke void @__cxa_rethrow() #21
          to label %44 unwind label %39

39:                                               ; preds = %35
  %40 = landingpad { ptr, i32 }
          cleanup
  invoke void @__cxa_end_catch()
          to label %49 unwind label %41

41:                                               ; preds = %39
  %42 = landingpad { ptr, i32 }
          catch ptr null
  %43 = extractvalue { ptr, i32 } %42, 0
  tail call void @__clang_call_terminate(ptr %43) #22
  unreachable

44:                                               ; preds = %35
  unreachable

45:                                               ; preds = %29
  %46 = getelementptr inbounds nuw i8, ptr %34, i64 8
  store i32 1, ptr %46, align 8, !tbaa !29
  %47 = getelementptr inbounds nuw i8, ptr %34, i64 12
  store i32 1, ptr %47, align 4, !tbaa !31
  store ptr getelementptr inbounds nuw inrange(-16, 40) (i8, ptr @_ZTVSt15_Sp_counted_ptrIPN2cv5GNode4PrivELN9__gnu_cxx12_Lock_policyE2EE, i64 16), ptr %34, align 8, !tbaa !32
  %48 = getelementptr inbounds nuw i8, ptr %34, i64 16
  store ptr %4, ptr %48, align 8, !tbaa !34
  store ptr %34, ptr %33, align 8, !tbaa !23
  call void @_ZN2cv5GCallD1Ev(ptr noundef nonnull align 8 dereferenceable(16) %3) #19
  ret void

49:                                               ; preds = %39
  call void @_ZN2cv5GCallD1Ev(ptr noundef nonnull align 8 dereferenceable(16) %3) #19
  resume { ptr, i32 } %40
}